ARM GAS  /tmp/cc96wlXm.s 			page 1


   1              		.cpu cortex-m4
   2              		.arch armv7e-m
   3              		.fpu fpv4-sp-d16
   4              		.eabi_attribute 27, 1
   5              		.eabi_attribute 28, 1
   6              		.eabi_attribute 20, 1
   7              		.eabi_attribute 21, 1
   8              		.eabi_attribute 23, 3
   9              		.eabi_attribute 24, 1
  10              		.eabi_attribute 25, 1
  11              		.eabi_attribute 26, 1
  12              		.eabi_attribute 30, 1
  13              		.eabi_attribute 34, 1
  14              		.eabi_attribute 18, 4
  15              		.file	"gpio.c"
  16              		.text
  17              	.Ltext0:
  18              		.cfi_sections	.debug_frame
  19              		.file 1 "Core/Src/gpio.c"
  20              		.section	.text.MX_GPIO_Init,"ax",%progbits
  21              		.align	1
  22              		.global	MX_GPIO_Init
  23              		.syntax unified
  24              		.thumb
  25              		.thumb_func
  27              	MX_GPIO_Init:
  28              	.LFB134:
   1:Core/Src/gpio.c **** /* USER CODE BEGIN Header */
   2:Core/Src/gpio.c **** /**
   3:Core/Src/gpio.c ****   ******************************************************************************
   4:Core/Src/gpio.c ****   * @file    gpio.c
   5:Core/Src/gpio.c ****   * @brief   This file provides code for the configuration
   6:Core/Src/gpio.c ****   *          of all used GPIO pins.
   7:Core/Src/gpio.c ****   ******************************************************************************
   8:Core/Src/gpio.c ****   * @attention
   9:Core/Src/gpio.c ****   *
  10:Core/Src/gpio.c ****   * Copyright (c) 2024 STMicroelectronics.
  11:Core/Src/gpio.c ****   * All rights reserved.
  12:Core/Src/gpio.c ****   *
  13:Core/Src/gpio.c ****   * This software is licensed under terms that can be found in the LICENSE file
  14:Core/Src/gpio.c ****   * in the root directory of this software component.
  15:Core/Src/gpio.c ****   * If no LICENSE file comes with this software, it is provided AS-IS.
  16:Core/Src/gpio.c ****   *
  17:Core/Src/gpio.c ****   ******************************************************************************
  18:Core/Src/gpio.c ****   */
  19:Core/Src/gpio.c **** /* USER CODE END Header */
  20:Core/Src/gpio.c **** 
  21:Core/Src/gpio.c **** /* Includes ------------------------------------------------------------------*/
  22:Core/Src/gpio.c **** #include "gpio.h"
  23:Core/Src/gpio.c **** 
  24:Core/Src/gpio.c **** /* USER CODE BEGIN 0 */
  25:Core/Src/gpio.c **** 
  26:Core/Src/gpio.c **** /* USER CODE END 0 */
  27:Core/Src/gpio.c **** 
  28:Core/Src/gpio.c **** /*----------------------------------------------------------------------------*/
  29:Core/Src/gpio.c **** /* Configure GPIO                                                             */
  30:Core/Src/gpio.c **** /*----------------------------------------------------------------------------*/
ARM GAS  /tmp/cc96wlXm.s 			page 2


  31:Core/Src/gpio.c **** /* USER CODE BEGIN 1 */
  32:Core/Src/gpio.c **** 
  33:Core/Src/gpio.c **** /* USER CODE END 1 */
  34:Core/Src/gpio.c **** 
  35:Core/Src/gpio.c **** /** Configure pins as
  36:Core/Src/gpio.c ****         * Analog
  37:Core/Src/gpio.c ****         * Input
  38:Core/Src/gpio.c ****         * Output
  39:Core/Src/gpio.c ****         * EVENT_OUT
  40:Core/Src/gpio.c ****         * EXTI
  41:Core/Src/gpio.c ****      PA8   ------> USB_OTG_FS_SOF
  42:Core/Src/gpio.c ****      PA9   ------> USB_OTG_FS_VBUS
  43:Core/Src/gpio.c ****      PA10   ------> USB_OTG_FS_ID
  44:Core/Src/gpio.c ****      PA11   ------> USB_OTG_FS_DM
  45:Core/Src/gpio.c ****      PA12   ------> USB_OTG_FS_DP
  46:Core/Src/gpio.c **** */
  47:Core/Src/gpio.c **** void MX_GPIO_Init(void)
  48:Core/Src/gpio.c **** {
  29              		.loc 1 48 1 view -0
  30              		.cfi_startproc
  31              		@ args = 0, pretend = 0, frame = 48
  32              		@ frame_needed = 0, uses_anonymous_args = 0
  33 0000 F0B5     		push	{r4, r5, r6, r7, lr}
  34              	.LCFI0:
  35              		.cfi_def_cfa_offset 20
  36              		.cfi_offset 4, -20
  37              		.cfi_offset 5, -16
  38              		.cfi_offset 6, -12
  39              		.cfi_offset 7, -8
  40              		.cfi_offset 14, -4
  41 0002 8DB0     		sub	sp, sp, #52
  42              	.LCFI1:
  43              		.cfi_def_cfa_offset 72
  49:Core/Src/gpio.c **** 
  50:Core/Src/gpio.c ****   GPIO_InitTypeDef GPIO_InitStruct = {0};
  44              		.loc 1 50 3 view .LVU1
  45              		.loc 1 50 20 is_stmt 0 view .LVU2
  46 0004 0024     		movs	r4, #0
  47 0006 0794     		str	r4, [sp, #28]
  48 0008 0894     		str	r4, [sp, #32]
  49 000a 0994     		str	r4, [sp, #36]
  50 000c 0A94     		str	r4, [sp, #40]
  51 000e 0B94     		str	r4, [sp, #44]
  51:Core/Src/gpio.c **** 
  52:Core/Src/gpio.c ****   /* GPIO Ports Clock Enable */
  53:Core/Src/gpio.c ****   __HAL_RCC_GPIOE_CLK_ENABLE();
  52              		.loc 1 53 3 is_stmt 1 view .LVU3
  53              	.LBB2:
  54              		.loc 1 53 3 view .LVU4
  55 0010 0094     		str	r4, [sp]
  56              		.loc 1 53 3 view .LVU5
  57 0012 4A4B     		ldr	r3, .L3
  58 0014 1A6B     		ldr	r2, [r3, #48]
  59 0016 42F01002 		orr	r2, r2, #16
  60 001a 1A63     		str	r2, [r3, #48]
  61              		.loc 1 53 3 view .LVU6
  62 001c 1A6B     		ldr	r2, [r3, #48]
ARM GAS  /tmp/cc96wlXm.s 			page 3


  63 001e 02F01002 		and	r2, r2, #16
  64 0022 0092     		str	r2, [sp]
  65              		.loc 1 53 3 view .LVU7
  66 0024 009A     		ldr	r2, [sp]
  67              	.LBE2:
  68              		.loc 1 53 3 view .LVU8
  54:Core/Src/gpio.c ****   __HAL_RCC_GPIOC_CLK_ENABLE();
  69              		.loc 1 54 3 view .LVU9
  70              	.LBB3:
  71              		.loc 1 54 3 view .LVU10
  72 0026 0194     		str	r4, [sp, #4]
  73              		.loc 1 54 3 view .LVU11
  74 0028 1A6B     		ldr	r2, [r3, #48]
  75 002a 42F00402 		orr	r2, r2, #4
  76 002e 1A63     		str	r2, [r3, #48]
  77              		.loc 1 54 3 view .LVU12
  78 0030 1A6B     		ldr	r2, [r3, #48]
  79 0032 02F00402 		and	r2, r2, #4
  80 0036 0192     		str	r2, [sp, #4]
  81              		.loc 1 54 3 view .LVU13
  82 0038 019A     		ldr	r2, [sp, #4]
  83              	.LBE3:
  84              		.loc 1 54 3 view .LVU14
  55:Core/Src/gpio.c ****   __HAL_RCC_GPIOH_CLK_ENABLE();
  85              		.loc 1 55 3 view .LVU15
  86              	.LBB4:
  87              		.loc 1 55 3 view .LVU16
  88 003a 0294     		str	r4, [sp, #8]
  89              		.loc 1 55 3 view .LVU17
  90 003c 1A6B     		ldr	r2, [r3, #48]
  91 003e 42F08002 		orr	r2, r2, #128
  92 0042 1A63     		str	r2, [r3, #48]
  93              		.loc 1 55 3 view .LVU18
  94 0044 1A6B     		ldr	r2, [r3, #48]
  95 0046 02F08002 		and	r2, r2, #128
  96 004a 0292     		str	r2, [sp, #8]
  97              		.loc 1 55 3 view .LVU19
  98 004c 029A     		ldr	r2, [sp, #8]
  99              	.LBE4:
 100              		.loc 1 55 3 view .LVU20
  56:Core/Src/gpio.c ****   __HAL_RCC_GPIOA_CLK_ENABLE();
 101              		.loc 1 56 3 view .LVU21
 102              	.LBB5:
 103              		.loc 1 56 3 view .LVU22
 104 004e 0394     		str	r4, [sp, #12]
 105              		.loc 1 56 3 view .LVU23
 106 0050 1A6B     		ldr	r2, [r3, #48]
 107 0052 42F00102 		orr	r2, r2, #1
 108 0056 1A63     		str	r2, [r3, #48]
 109              		.loc 1 56 3 view .LVU24
 110 0058 1A6B     		ldr	r2, [r3, #48]
 111 005a 02F00102 		and	r2, r2, #1
 112 005e 0392     		str	r2, [sp, #12]
 113              		.loc 1 56 3 view .LVU25
 114 0060 039A     		ldr	r2, [sp, #12]
 115              	.LBE5:
 116              		.loc 1 56 3 view .LVU26
ARM GAS  /tmp/cc96wlXm.s 			page 4


  57:Core/Src/gpio.c ****   __HAL_RCC_GPIOB_CLK_ENABLE();
 117              		.loc 1 57 3 view .LVU27
 118              	.LBB6:
 119              		.loc 1 57 3 view .LVU28
 120 0062 0494     		str	r4, [sp, #16]
 121              		.loc 1 57 3 view .LVU29
 122 0064 1A6B     		ldr	r2, [r3, #48]
 123 0066 42F00202 		orr	r2, r2, #2
 124 006a 1A63     		str	r2, [r3, #48]
 125              		.loc 1 57 3 view .LVU30
 126 006c 1A6B     		ldr	r2, [r3, #48]
 127 006e 02F00202 		and	r2, r2, #2
 128 0072 0492     		str	r2, [sp, #16]
 129              		.loc 1 57 3 view .LVU31
 130 0074 049A     		ldr	r2, [sp, #16]
 131              	.LBE6:
 132              		.loc 1 57 3 view .LVU32
  58:Core/Src/gpio.c ****   __HAL_RCC_GPIOD_CLK_ENABLE();
 133              		.loc 1 58 3 view .LVU33
 134              	.LBB7:
 135              		.loc 1 58 3 view .LVU34
 136 0076 0594     		str	r4, [sp, #20]
 137              		.loc 1 58 3 view .LVU35
 138 0078 1A6B     		ldr	r2, [r3, #48]
 139 007a 42F00802 		orr	r2, r2, #8
 140 007e 1A63     		str	r2, [r3, #48]
 141              		.loc 1 58 3 view .LVU36
 142 0080 1A6B     		ldr	r2, [r3, #48]
 143 0082 02F00802 		and	r2, r2, #8
 144 0086 0592     		str	r2, [sp, #20]
 145              		.loc 1 58 3 view .LVU37
 146 0088 059A     		ldr	r2, [sp, #20]
 147              	.LBE7:
 148              		.loc 1 58 3 view .LVU38
  59:Core/Src/gpio.c ****   __HAL_RCC_GPIOG_CLK_ENABLE();
 149              		.loc 1 59 3 view .LVU39
 150              	.LBB8:
 151              		.loc 1 59 3 view .LVU40
 152 008a 0694     		str	r4, [sp, #24]
 153              		.loc 1 59 3 view .LVU41
 154 008c 1A6B     		ldr	r2, [r3, #48]
 155 008e 42F04002 		orr	r2, r2, #64
 156 0092 1A63     		str	r2, [r3, #48]
 157              		.loc 1 59 3 view .LVU42
 158 0094 1B6B     		ldr	r3, [r3, #48]
 159 0096 03F04003 		and	r3, r3, #64
 160 009a 0693     		str	r3, [sp, #24]
 161              		.loc 1 59 3 view .LVU43
 162 009c 069B     		ldr	r3, [sp, #24]
 163              	.LBE8:
 164              		.loc 1 59 3 view .LVU44
  60:Core/Src/gpio.c **** 
  61:Core/Src/gpio.c ****   /*Configure GPIO pin Output Level */
  62:Core/Src/gpio.c ****   HAL_GPIO_WritePin(GPIOB, LD3_Pin|LD2_Pin, GPIO_PIN_RESET);
 165              		.loc 1 62 3 view .LVU45
 166 009e 284F     		ldr	r7, .L3+4
 167 00a0 2246     		mov	r2, r4
ARM GAS  /tmp/cc96wlXm.s 			page 5


 168 00a2 4FF48141 		mov	r1, #16512
 169 00a6 3846     		mov	r0, r7
 170 00a8 FFF7FEFF 		bl	HAL_GPIO_WritePin
 171              	.LVL0:
  63:Core/Src/gpio.c **** 
  64:Core/Src/gpio.c ****   /*Configure GPIO pin Output Level */
  65:Core/Src/gpio.c ****   HAL_GPIO_WritePin(USB_PowerSwitchOn_GPIO_Port, USB_PowerSwitchOn_Pin, GPIO_PIN_RESET);
 172              		.loc 1 65 3 view .LVU46
 173 00ac 254D     		ldr	r5, .L3+8
 174 00ae 2246     		mov	r2, r4
 175 00b0 4021     		movs	r1, #64
 176 00b2 2846     		mov	r0, r5
 177 00b4 FFF7FEFF 		bl	HAL_GPIO_WritePin
 178              	.LVL1:
  66:Core/Src/gpio.c **** 
  67:Core/Src/gpio.c ****   /*Configure GPIO pin : PtPin */
  68:Core/Src/gpio.c ****   GPIO_InitStruct.Pin = USER_Btn_Pin;
 179              		.loc 1 68 3 view .LVU47
 180              		.loc 1 68 23 is_stmt 0 view .LVU48
 181 00b8 4FF40053 		mov	r3, #8192
 182 00bc 0793     		str	r3, [sp, #28]
  69:Core/Src/gpio.c ****   GPIO_InitStruct.Mode = GPIO_MODE_IT_RISING;
 183              		.loc 1 69 3 is_stmt 1 view .LVU49
 184              		.loc 1 69 24 is_stmt 0 view .LVU50
 185 00be 4FF48813 		mov	r3, #1114112
 186 00c2 0893     		str	r3, [sp, #32]
  70:Core/Src/gpio.c ****   GPIO_InitStruct.Pull = GPIO_NOPULL;
 187              		.loc 1 70 3 is_stmt 1 view .LVU51
 188              		.loc 1 70 24 is_stmt 0 view .LVU52
 189 00c4 0994     		str	r4, [sp, #36]
  71:Core/Src/gpio.c ****   HAL_GPIO_Init(USER_Btn_GPIO_Port, &GPIO_InitStruct);
 190              		.loc 1 71 3 is_stmt 1 view .LVU53
 191 00c6 07A9     		add	r1, sp, #28
 192 00c8 1F48     		ldr	r0, .L3+12
 193 00ca FFF7FEFF 		bl	HAL_GPIO_Init
 194              	.LVL2:
  72:Core/Src/gpio.c **** 
  73:Core/Src/gpio.c ****   /*Configure GPIO pins : PBPin PBPin */
  74:Core/Src/gpio.c ****   GPIO_InitStruct.Pin = LD3_Pin|LD2_Pin;
 195              		.loc 1 74 3 view .LVU54
 196              		.loc 1 74 23 is_stmt 0 view .LVU55
 197 00ce 4FF48143 		mov	r3, #16512
 198 00d2 0793     		str	r3, [sp, #28]
  75:Core/Src/gpio.c ****   GPIO_InitStruct.Mode = GPIO_MODE_OUTPUT_PP;
 199              		.loc 1 75 3 is_stmt 1 view .LVU56
 200              		.loc 1 75 24 is_stmt 0 view .LVU57
 201 00d4 0126     		movs	r6, #1
 202 00d6 0896     		str	r6, [sp, #32]
  76:Core/Src/gpio.c ****   GPIO_InitStruct.Pull = GPIO_NOPULL;
 203              		.loc 1 76 3 is_stmt 1 view .LVU58
 204              		.loc 1 76 24 is_stmt 0 view .LVU59
 205 00d8 0994     		str	r4, [sp, #36]
  77:Core/Src/gpio.c ****   GPIO_InitStruct.Speed = GPIO_SPEED_FREQ_LOW;
 206              		.loc 1 77 3 is_stmt 1 view .LVU60
 207              		.loc 1 77 25 is_stmt 0 view .LVU61
 208 00da 0A94     		str	r4, [sp, #40]
  78:Core/Src/gpio.c ****   HAL_GPIO_Init(GPIOB, &GPIO_InitStruct);
ARM GAS  /tmp/cc96wlXm.s 			page 6


 209              		.loc 1 78 3 is_stmt 1 view .LVU62
 210 00dc 07A9     		add	r1, sp, #28
 211 00de 3846     		mov	r0, r7
 212 00e0 FFF7FEFF 		bl	HAL_GPIO_Init
 213              	.LVL3:
  79:Core/Src/gpio.c **** 
  80:Core/Src/gpio.c ****   /*Configure GPIO pin : PtPin */
  81:Core/Src/gpio.c ****   GPIO_InitStruct.Pin = USB_PowerSwitchOn_Pin;
 214              		.loc 1 81 3 view .LVU63
 215              		.loc 1 81 23 is_stmt 0 view .LVU64
 216 00e4 4023     		movs	r3, #64
 217 00e6 0793     		str	r3, [sp, #28]
  82:Core/Src/gpio.c ****   GPIO_InitStruct.Mode = GPIO_MODE_OUTPUT_PP;
 218              		.loc 1 82 3 is_stmt 1 view .LVU65
 219              		.loc 1 82 24 is_stmt 0 view .LVU66
 220 00e8 0896     		str	r6, [sp, #32]
  83:Core/Src/gpio.c ****   GPIO_InitStruct.Pull = GPIO_NOPULL;
 221              		.loc 1 83 3 is_stmt 1 view .LVU67
 222              		.loc 1 83 24 is_stmt 0 view .LVU68
 223 00ea 0994     		str	r4, [sp, #36]
  84:Core/Src/gpio.c ****   GPIO_InitStruct.Speed = GPIO_SPEED_FREQ_LOW;
 224              		.loc 1 84 3 is_stmt 1 view .LVU69
 225              		.loc 1 84 25 is_stmt 0 view .LVU70
 226 00ec 0A94     		str	r4, [sp, #40]
  85:Core/Src/gpio.c ****   HAL_GPIO_Init(USB_PowerSwitchOn_GPIO_Port, &GPIO_InitStruct);
 227              		.loc 1 85 3 is_stmt 1 view .LVU71
 228 00ee 07A9     		add	r1, sp, #28
 229 00f0 2846     		mov	r0, r5
 230 00f2 FFF7FEFF 		bl	HAL_GPIO_Init
 231              	.LVL4:
  86:Core/Src/gpio.c **** 
  87:Core/Src/gpio.c ****   /*Configure GPIO pin : PtPin */
  88:Core/Src/gpio.c ****   GPIO_InitStruct.Pin = USB_OverCurrent_Pin;
 232              		.loc 1 88 3 view .LVU72
 233              		.loc 1 88 23 is_stmt 0 view .LVU73
 234 00f6 8023     		movs	r3, #128
 235 00f8 0793     		str	r3, [sp, #28]
  89:Core/Src/gpio.c ****   GPIO_InitStruct.Mode = GPIO_MODE_INPUT;
 236              		.loc 1 89 3 is_stmt 1 view .LVU74
 237              		.loc 1 89 24 is_stmt 0 view .LVU75
 238 00fa 0894     		str	r4, [sp, #32]
  90:Core/Src/gpio.c ****   GPIO_InitStruct.Pull = GPIO_NOPULL;
 239              		.loc 1 90 3 is_stmt 1 view .LVU76
 240              		.loc 1 90 24 is_stmt 0 view .LVU77
 241 00fc 0994     		str	r4, [sp, #36]
  91:Core/Src/gpio.c ****   HAL_GPIO_Init(USB_OverCurrent_GPIO_Port, &GPIO_InitStruct);
 242              		.loc 1 91 3 is_stmt 1 view .LVU78
 243 00fe 07A9     		add	r1, sp, #28
 244 0100 2846     		mov	r0, r5
 245 0102 FFF7FEFF 		bl	HAL_GPIO_Init
 246              	.LVL5:
  92:Core/Src/gpio.c **** 
  93:Core/Src/gpio.c ****   /*Configure GPIO pins : PAPin PAPin PAPin PAPin */
  94:Core/Src/gpio.c ****   GPIO_InitStruct.Pin = USB_SOF_Pin|USB_ID_Pin|USB_DM_Pin|USB_DP_Pin;
 247              		.loc 1 94 3 view .LVU79
 248              		.loc 1 94 23 is_stmt 0 view .LVU80
 249 0106 4FF4E853 		mov	r3, #7424
ARM GAS  /tmp/cc96wlXm.s 			page 7


 250 010a 0793     		str	r3, [sp, #28]
  95:Core/Src/gpio.c ****   GPIO_InitStruct.Mode = GPIO_MODE_AF_PP;
 251              		.loc 1 95 3 is_stmt 1 view .LVU81
 252              		.loc 1 95 24 is_stmt 0 view .LVU82
 253 010c 0223     		movs	r3, #2
 254 010e 0893     		str	r3, [sp, #32]
  96:Core/Src/gpio.c ****   GPIO_InitStruct.Pull = GPIO_NOPULL;
 255              		.loc 1 96 3 is_stmt 1 view .LVU83
 256              		.loc 1 96 24 is_stmt 0 view .LVU84
 257 0110 0994     		str	r4, [sp, #36]
  97:Core/Src/gpio.c ****   GPIO_InitStruct.Speed = GPIO_SPEED_FREQ_VERY_HIGH;
 258              		.loc 1 97 3 is_stmt 1 view .LVU85
 259              		.loc 1 97 25 is_stmt 0 view .LVU86
 260 0112 0323     		movs	r3, #3
 261 0114 0A93     		str	r3, [sp, #40]
  98:Core/Src/gpio.c ****   GPIO_InitStruct.Alternate = GPIO_AF10_OTG_FS;
 262              		.loc 1 98 3 is_stmt 1 view .LVU87
 263              		.loc 1 98 29 is_stmt 0 view .LVU88
 264 0116 0A23     		movs	r3, #10
 265 0118 0B93     		str	r3, [sp, #44]
  99:Core/Src/gpio.c ****   HAL_GPIO_Init(GPIOA, &GPIO_InitStruct);
 266              		.loc 1 99 3 is_stmt 1 view .LVU89
 267 011a A5F5C055 		sub	r5, r5, #6144
 268 011e 07A9     		add	r1, sp, #28
 269 0120 2846     		mov	r0, r5
 270 0122 FFF7FEFF 		bl	HAL_GPIO_Init
 271              	.LVL6:
 100:Core/Src/gpio.c **** 
 101:Core/Src/gpio.c ****   /*Configure GPIO pin : PtPin */
 102:Core/Src/gpio.c ****   GPIO_InitStruct.Pin = USB_VBUS_Pin;
 272              		.loc 1 102 3 view .LVU90
 273              		.loc 1 102 23 is_stmt 0 view .LVU91
 274 0126 4FF40073 		mov	r3, #512
 275 012a 0793     		str	r3, [sp, #28]
 103:Core/Src/gpio.c ****   GPIO_InitStruct.Mode = GPIO_MODE_INPUT;
 276              		.loc 1 103 3 is_stmt 1 view .LVU92
 277              		.loc 1 103 24 is_stmt 0 view .LVU93
 278 012c 0894     		str	r4, [sp, #32]
 104:Core/Src/gpio.c ****   GPIO_InitStruct.Pull = GPIO_NOPULL;
 279              		.loc 1 104 3 is_stmt 1 view .LVU94
 280              		.loc 1 104 24 is_stmt 0 view .LVU95
 281 012e 0994     		str	r4, [sp, #36]
 105:Core/Src/gpio.c ****   HAL_GPIO_Init(USB_VBUS_GPIO_Port, &GPIO_InitStruct);
 282              		.loc 1 105 3 is_stmt 1 view .LVU96
 283 0130 07A9     		add	r1, sp, #28
 284 0132 2846     		mov	r0, r5
 285 0134 FFF7FEFF 		bl	HAL_GPIO_Init
 286              	.LVL7:
 106:Core/Src/gpio.c **** 
 107:Core/Src/gpio.c **** }
 287              		.loc 1 107 1 is_stmt 0 view .LVU97
 288 0138 0DB0     		add	sp, sp, #52
 289              	.LCFI2:
 290              		.cfi_def_cfa_offset 20
 291              		@ sp needed
 292 013a F0BD     		pop	{r4, r5, r6, r7, pc}
 293              	.L4:
ARM GAS  /tmp/cc96wlXm.s 			page 8


 294              		.align	2
 295              	.L3:
 296 013c 00380240 		.word	1073887232
 297 0140 00040240 		.word	1073873920
 298 0144 00180240 		.word	1073879040
 299 0148 00080240 		.word	1073874944
 300              		.cfi_endproc
 301              	.LFE134:
 303              		.text
 304              	.Letext0:
 305              		.file 2 "/opt/st/stm32cubeide_1.16.0/plugins/com.st.stm32cube.ide.mcu.externaltools.gnu-tools-for-
 306              		.file 3 "/opt/st/stm32cubeide_1.16.0/plugins/com.st.stm32cube.ide.mcu.externaltools.gnu-tools-for-
 307              		.file 4 "Drivers/CMSIS/Device/ST/STM32F4xx/Include/stm32f429xx.h"
 308              		.file 5 "Drivers/STM32F4xx_HAL_Driver/Inc/stm32f4xx_hal_gpio.h"
ARM GAS  /tmp/cc96wlXm.s 			page 9

